target datalayout = "e-m:e-p270:32:32-p271:32:32-p272:64:64-i64:64-i128:128-f80:128-n8:16:32:64-S128"
target triple = "x86_64-unknown-linux-gnu"

%struct.QEMUSnapshotInfo = type { [128 x i8], [256 x i8], i64, i32, i32, i64, i64 }

@.str.6 = private unnamed_addr constant [22 x i8] c"qemu_in_main_thread()\00", align 1
@.str.7 = private unnamed_addr constant [25 x i8] c"../qemu/block/snapshot.c\00", align 1
@.str.8 = private unnamed_addr constant [11 x i8] c"id || name\00", align 1
@__PRETTY_FUNCTION__.bdrv_snapshot_find_by_id_and_name = private unnamed_addr constant [118 x i8] c"_Bool bdrv_snapshot_find_by_id_and_name(BlockDriverState *, const char *, const char *, QEMUSnapshotInfo *, Error **)\00", align 1
@__func__.bdrv_snapshot_find_by_id_and_name = private unnamed_addr constant [34 x i8] c"bdrv_snapshot_find_by_id_and_name\00", align 1
@.str.9 = private unnamed_addr constant [30 x i8] c"Failed to get a snapshot list\00", align 1

; Function Attrs: nounwind sspstrong uwtable
define dso_local zeroext i1 @bdrv_snapshot_find_by_id_and_name(ptr noundef %bs, ptr noundef %id, ptr noundef %name, ptr noundef %sn_info, ptr noundef %errp) #0 {
entry:
  %retval = alloca i1, align 1
  %bs.addr = alloca ptr, align 8
  %id.addr = alloca ptr, align 8
  %name.addr = alloca ptr, align 8
  %sn_info.addr = alloca ptr, align 8
  %errp.addr = alloca ptr, align 8
  %sn_tab = alloca ptr, align 8
  %sn = alloca ptr, align 8
  %nb_sns = alloca i32, align 4
  %i = alloca i32, align 4
  %ret = alloca i8, align 1
  store ptr %bs, ptr %bs.addr, align 8
  store ptr %id, ptr %id.addr, align 8
  store ptr %name, ptr %name.addr, align 8
  store ptr %sn_info, ptr %sn_info.addr, align 8
  store ptr %errp, ptr %errp.addr, align 8
  store i8 0, ptr %ret, align 1
  %0 = load ptr, ptr %id.addr, align 8
  %tobool = icmp ne ptr %0, null
  br i1 %tobool, label %if.then, label %lor.lhs.false

lor.lhs.false:                                    ; preds = %entry
  %1 = load ptr, ptr %name.addr, align 8
  %tobool1 = icmp ne ptr %1, null
  br i1 %tobool1, label %if.then, label %if.else

if.then:                                          ; preds = %lor.lhs.false, %entry
  br label %if.end

if.else:                                          ; preds = %lor.lhs.false
  call void @__assert_fail(ptr noundef @.str.8, ptr noundef @.str.7, i32 noundef 109, ptr noundef @__PRETTY_FUNCTION__.bdrv_snapshot_find_by_id_and_name) #6
  unreachable

if.end:                                           ; preds = %if.then
  br label %do.body

do.body:                                          ; preds = %if.end
  %call = call zeroext i1 @qemu_in_main_thread()
  br i1 %call, label %if.then2, label %if.else3

if.then2:                                         ; preds = %do.body
  br label %if.end4

if.else3:                                         ; preds = %do.body
  call void @__assert_fail(ptr noundef @.str.6, ptr noundef @.str.7, i32 noundef 110, ptr noundef @__PRETTY_FUNCTION__.bdrv_snapshot_find_by_id_and_name) #6
  unreachable

if.end4:                                          ; preds = %if.then2
  br label %do.end

do.end:                                           ; preds = %if.end4
  %2 = load ptr, ptr %bs.addr, align 8
  %call5 = call i32 @bdrv_snapshot_list(ptr noundef %2, ptr noundef %sn_tab)
  store i32 %call5, ptr %nb_sns, align 4
  %3 = load i32, ptr %nb_sns, align 4
  %cmp = icmp slt i32 %3, 0
  br i1 %cmp, label %if.then6, label %if.else7

if.then6:                                         ; preds = %do.end
  %4 = load ptr, ptr %errp.addr, align 8
  %5 = load i32, ptr %nb_sns, align 4
  %sub = sub i32 0, %5
  call void (ptr, ptr, i32, ptr, i32, ptr, ...) @error_setg_errno_internal(ptr noundef %4, ptr noundef @.str.7, i32 noundef 114, ptr noundef @__func__.bdrv_snapshot_find_by_id_and_name, i32 noundef %sub, ptr noundef @.str.9)
  store i1 false, ptr %retval, align 1
  br label %return

if.else7:                                         ; preds = %do.end
  %6 = load i32, ptr %nb_sns, align 4
  %cmp8 = icmp eq i32 %6, 0
  br i1 %cmp8, label %if.then9, label %if.end10

if.then9:                                         ; preds = %if.else7
  store i1 false, ptr %retval, align 1
  br label %return

if.end10:                                         ; preds = %if.else7
  br label %if.end11

if.end11:                                         ; preds = %if.end10
  %7 = load ptr, ptr %id.addr, align 8
  %tobool12 = icmp ne ptr %7, null
  br i1 %tobool12, label %land.lhs.true, label %if.else25

land.lhs.true:                                    ; preds = %if.end11
  %8 = load ptr, ptr %name.addr, align 8
  %tobool13 = icmp ne ptr %8, null
  br i1 %tobool13, label %if.then14, label %if.else25

if.then14:                                        ; preds = %land.lhs.true
  store i32 0, ptr %i, align 4
  br label %for.cond

for.cond:                                         ; preds = %for.inc, %if.then14
  %9 = load i32, ptr %i, align 4
  %10 = load i32, ptr %nb_sns, align 4
  %cmp15 = icmp slt i32 %9, %10
  br i1 %cmp15, label %for.body, label %for.end

for.body:                                         ; preds = %for.cond
  %11 = load ptr, ptr %sn_tab, align 8
  %12 = load i32, ptr %i, align 4
  %idxprom = sext i32 %12 to i64
  %arrayidx = getelementptr %struct.QEMUSnapshotInfo, ptr %11, i64 %idxprom
  store ptr %arrayidx, ptr %sn, align 8
  %13 = load ptr, ptr %sn, align 8
  %id_str = getelementptr inbounds %struct.QEMUSnapshotInfo, ptr %13, i32 0, i32 0
  %arraydecay = getelementptr inbounds [128 x i8], ptr %id_str, i64 0, i64 0
  %14 = load ptr, ptr %id.addr, align 8
  %call16 = call i32 @strcmp(ptr noundef %arraydecay, ptr noundef %14) #7
  %tobool17 = icmp ne i32 %call16, 0
  br i1 %tobool17, label %if.end24, label %land.lhs.true18

land.lhs.true18:                                  ; preds = %for.body
  %15 = load ptr, ptr %sn, align 8
  %name19 = getelementptr inbounds %struct.QEMUSnapshotInfo, ptr %15, i32 0, i32 1
  %arraydecay20 = getelementptr inbounds [256 x i8], ptr %name19, i64 0, i64 0
  %16 = load ptr, ptr %name.addr, align 8
  %call21 = call i32 @strcmp(ptr noundef %arraydecay20, ptr noundef %16) #7
  %tobool22 = icmp ne i32 %call21, 0
  br i1 %tobool22, label %if.end24, label %if.then23

if.then23:                                        ; preds = %land.lhs.true18
  %17 = load ptr, ptr %sn_info.addr, align 8
  %18 = load ptr, ptr %sn, align 8
  call void @llvm.memcpy.p0.p0.i64(ptr align 8 %17, ptr align 8 %18, i64 416, i1 false)
  store i8 1, ptr %ret, align 1
  br label %for.end

if.end24:                                         ; preds = %land.lhs.true18, %for.body
  br label %for.inc

for.inc:                                          ; preds = %if.end24
  %19 = load i32, ptr %i, align 4
  %inc = add i32 %19, 1
  store i32 %inc, ptr %i, align 4
  br label %for.cond, !llvm.loop !7

for.end:                                          ; preds = %if.then23, %for.cond
  br label %if.end61

if.else25:                                        ; preds = %land.lhs.true, %if.end11
  %20 = load ptr, ptr %id.addr, align 8
  %tobool26 = icmp ne ptr %20, null
  br i1 %tobool26, label %if.then27, label %if.else42

if.then27:                                        ; preds = %if.else25
  store i32 0, ptr %i, align 4
  br label %for.cond28

for.cond28:                                       ; preds = %for.inc39, %if.then27
  %21 = load i32, ptr %i, align 4
  %22 = load i32, ptr %nb_sns, align 4
  %cmp29 = icmp slt i32 %21, %22
  br i1 %cmp29, label %for.body30, label %for.end41

for.body30:                                       ; preds = %for.cond28
  %23 = load ptr, ptr %sn_tab, align 8
  %24 = load i32, ptr %i, align 4
  %idxprom31 = sext i32 %24 to i64
  %arrayidx32 = getelementptr %struct.QEMUSnapshotInfo, ptr %23, i64 %idxprom31
  store ptr %arrayidx32, ptr %sn, align 8
  %25 = load ptr, ptr %sn, align 8
  %id_str33 = getelementptr inbounds %struct.QEMUSnapshotInfo, ptr %25, i32 0, i32 0
  %arraydecay34 = getelementptr inbounds [128 x i8], ptr %id_str33, i64 0, i64 0
  %26 = load ptr, ptr %id.addr, align 8
  %call35 = call i32 @strcmp(ptr noundef %arraydecay34, ptr noundef %26) #7
  %tobool36 = icmp ne i32 %call35, 0
  br i1 %tobool36, label %if.end38, label %if.then37

if.then37:                                        ; preds = %for.body30
  %27 = load ptr, ptr %sn_info.addr, align 8
  %28 = load ptr, ptr %sn, align 8
  call void @llvm.memcpy.p0.p0.i64(ptr align 8 %27, ptr align 8 %28, i64 416, i1 false)
  store i8 1, ptr %ret, align 1
  br label %for.end41

if.end38:                                         ; preds = %for.body30
  br label %for.inc39

for.inc39:                                        ; preds = %if.end38
  %29 = load i32, ptr %i, align 4
  %inc40 = add i32 %29, 1
  store i32 %inc40, ptr %i, align 4
  br label %for.cond28, !llvm.loop !8

for.end41:                                        ; preds = %if.then37, %for.cond28
  br label %if.end60

if.else42:                                        ; preds = %if.else25
  %30 = load ptr, ptr %name.addr, align 8
  %tobool43 = icmp ne ptr %30, null
  br i1 %tobool43, label %if.then44, label %if.end59

if.then44:                                        ; preds = %if.else42
  store i32 0, ptr %i, align 4
  br label %for.cond45

for.cond45:                                       ; preds = %for.inc56, %if.then44
  %31 = load i32, ptr %i, align 4
  %32 = load i32, ptr %nb_sns, align 4
  %cmp46 = icmp slt i32 %31, %32
  br i1 %cmp46, label %for.body47, label %for.end58

for.body47:                                       ; preds = %for.cond45
  %33 = load ptr, ptr %sn_tab, align 8
  %34 = load i32, ptr %i, align 4
  %idxprom48 = sext i32 %34 to i64
  %arrayidx49 = getelementptr %struct.QEMUSnapshotInfo, ptr %33, i64 %idxprom48
  store ptr %arrayidx49, ptr %sn, align 8
  %35 = load ptr, ptr %sn, align 8
  %name50 = getelementptr inbounds %struct.QEMUSnapshotInfo, ptr %35, i32 0, i32 1
  %arraydecay51 = getelementptr inbounds [256 x i8], ptr %name50, i64 0, i64 0
  %36 = load ptr, ptr %name.addr, align 8
  %call52 = call i32 @strcmp(ptr noundef %arraydecay51, ptr noundef %36) #7
  %tobool53 = icmp ne i32 %call52, 0
  br i1 %tobool53, label %if.end55, label %if.then54

if.then54:                                        ; preds = %for.body47
  %37 = load ptr, ptr %sn_info.addr, align 8
  %38 = load ptr, ptr %sn, align 8
  call void @llvm.memcpy.p0.p0.i64(ptr align 8 %37, ptr align 8 %38, i64 416, i1 false)
  store i8 1, ptr %ret, align 1
  br label %for.end58

if.end55:                                         ; preds = %for.body47
  br label %for.inc56

for.inc56:                                        ; preds = %if.end55
  %39 = load i32, ptr %i, align 4
  %inc57 = add i32 %39, 1
  store i32 %inc57, ptr %i, align 4
  br label %for.cond45, !llvm.loop !9

for.end58:                                        ; preds = %if.then54, %for.cond45
  br label %if.end59

if.end59:                                         ; preds = %for.end58, %if.else42
  br label %if.end60

if.end60:                                         ; preds = %if.end59, %for.end41
  br label %if.end61

if.end61:                                         ; preds = %if.end60, %for.end
  %40 = load ptr, ptr %sn_tab, align 8
  call void @g_free(ptr noundef %40)
  %41 = load i8, ptr %ret, align 1
  %tobool62 = trunc i8 %41 to i1
  store i1 %tobool62, ptr %retval, align 1
  br label %return

return:                                           ; preds = %if.end61, %if.then9, %if.then6
  %42 = load i1, ptr %retval, align 1
  ret i1 %42
}