; Function Attrs: nounwind sspstrong uwtable
define dso_local noundef zeroext i1 @bdrv_snapshot_find_by_id_and_name(ptr noundef %bs, ptr noundef readonly %id, ptr noundef readonly %name, ptr noundef writeonly captures(none) %sn_info, ptr noundef %errp) local_unnamed_addr #0 {
entry:
  %sn_tab = alloca ptr, align 8
  %tobool = icmp ne ptr %id, null
  %tobool1 = icmp ne ptr %name, null
  %or.cond = or i1 %tobool, %tobool1
  br i1 %or.cond, label %do.body, label %if.else

if.else:                                          ; preds = %entry
  tail call void @__assert_fail(ptr noundef nonnull @.str.8, ptr noundef nonnull @.str.7, i32 noundef 109, ptr noundef nonnull @__PRETTY_FUNCTION__.bdrv_snapshot_find_by_id_and_name) #7
  unreachable

do.body:                                          ; preds = %entry
  %call = tail call zeroext i1 @qemu_in_main_thread() #6
  br i1 %call, label %do.end, label %if.else3

if.else3:                                         ; preds = %do.body
  tail call void @__assert_fail(ptr noundef nonnull @.str.6, ptr noundef nonnull @.str.7, i32 noundef 110, ptr noundef nonnull @__PRETTY_FUNCTION__.bdrv_snapshot_find_by_id_and_name) #7
  unreachable

do.end:                                           ; preds = %do.body
  %call5 = call i32 @bdrv_snapshot_list(ptr noundef %bs, ptr noundef nonnull %sn_tab)
  %cmp = icmp slt i32 %call5, 0
  br i1 %cmp, label %if.then6, label %if.else7

if.then6:                                         ; preds = %do.end
  %sub = sub i32 0, %call5
  call void (ptr, ptr, i32, ptr, i32, ptr, ...) @error_setg_errno_internal(ptr noundef %errp, ptr noundef nonnull @.str.7, i32 noundef 114, ptr noundef nonnull @__func__.bdrv_snapshot_find_by_id_and_name, i32 noundef %sub, ptr noundef nonnull @.str.9) #6
  br label %return

if.else7:                                         ; preds = %do.end
  %cmp8 = icmp eq i32 %call5, 0
  br i1 %cmp8, label %return, label %if.end11

if.end11:                                         ; preds = %if.else7
  %or.cond1 = and i1 %tobool, %tobool1
  br i1 %or.cond1, label %for.body.lr.ph, label %if.else25

for.body.lr.ph:                                   ; preds = %if.end11
  %0 = load ptr, ptr %sn_tab, align 8
  %wide.trip.count54 = zext nneg i32 %call5 to i64
  br label %for.body

for.body:                                         ; preds = %for.body.lr.ph, %for.inc
  %indvars.iv51 = phi i64 [ 0, %for.body.lr.ph ], [ %indvars.iv.next52, %for.inc ]
  %arrayidx = getelementptr %struct.QEMUSnapshotInfo, ptr %0, i64 %indvars.iv51
  %call16 = call i32 @strcmp(ptr noundef nonnull dereferenceable(1) %arrayidx, ptr noundef nonnull dereferenceable(1) %id) #8
  %tobool17.not = icmp eq i32 %call16, 0
  br i1 %tobool17.not, label %land.lhs.true18, label %for.inc

land.lhs.true18:                                  ; preds = %for.body
  %name19 = getelementptr inbounds nuw i8, ptr %arrayidx, i64 128
  %call21 = call i32 @strcmp(ptr noundef nonnull dereferenceable(1) %name19, ptr noundef nonnull dereferenceable(1) %name) #8
  %tobool22.not = icmp eq i32 %call21, 0
  br i1 %tobool22.not, label %if.end61.sink.split, label %for.inc

for.inc:                                          ; preds = %for.body, %land.lhs.true18
  %indvars.iv.next52 = add nuw nsw i64 %indvars.iv51, 1
  %exitcond55.not = icmp eq i64 %indvars.iv.next52, %wide.trip.count54
  br i1 %exitcond55.not, label %if.end61, label %for.body, !llvm.loop !7

if.else25:                                        ; preds = %if.end11
  br i1 %tobool, label %for.body30.lr.ph, label %if.else42

for.body30.lr.ph:                                 ; preds = %if.else25
  %1 = load ptr, ptr %sn_tab, align 8
  %wide.trip.count49 = zext nneg i32 %call5 to i64
  br label %for.body30

for.cond28:                                       ; preds = %for.body30
  %indvars.iv.next47 = add nuw nsw i64 %indvars.iv46, 1
  %exitcond50.not = icmp eq i64 %indvars.iv.next47, %wide.trip.count49
  br i1 %exitcond50.not, label %if.end61, label %for.body30, !llvm.loop !8

for.body30:                                       ; preds = %for.body30.lr.ph, %for.cond28
  %indvars.iv46 = phi i64 [ 0, %for.body30.lr.ph ], [ %indvars.iv.next47, %for.cond28 ]
  %arrayidx32 = getelementptr %struct.QEMUSnapshotInfo, ptr %1, i64 %indvars.iv46
  %call35 = call i32 @strcmp(ptr noundef nonnull dereferenceable(1) %arrayidx32, ptr noundef nonnull dereferenceable(1) %id) #8
  %tobool36.not = icmp eq i32 %call35, 0
  br i1 %tobool36.not, label %if.end61.sink.split, label %for.cond28

if.else42:                                        ; preds = %if.else25
  br i1 %tobool1, label %for.body47.lr.ph, label %if.end61

for.body47.lr.ph:                                 ; preds = %if.else42
  %2 = load ptr, ptr %sn_tab, align 8
  %wide.trip.count = zext nneg i32 %call5 to i64
  br label %for.body47

for.cond45:                                       ; preds = %for.body47
  %indvars.iv.next = add nuw nsw i64 %indvars.iv, 1
  %exitcond.not = icmp eq i64 %indvars.iv.next, %wide.trip.count
  br i1 %exitcond.not, label %if.end61, label %for.body47, !llvm.loop !9

for.body47:                                       ; preds = %for.body47.lr.ph, %for.cond45
  %indvars.iv = phi i64 [ 0, %for.body47.lr.ph ], [ %indvars.iv.next, %for.cond45 ]
  %arrayidx49 = getelementptr %struct.QEMUSnapshotInfo, ptr %2, i64 %indvars.iv
  %name50 = getelementptr inbounds nuw i8, ptr %arrayidx49, i64 128
  %call52 = call i32 @strcmp(ptr noundef nonnull dereferenceable(1) %name50, ptr noundef nonnull dereferenceable(1) %name) #8
  %tobool53.not = icmp eq i32 %call52, 0
  br i1 %tobool53.not, label %if.end61.sink.split, label %for.cond45

if.end61.sink.split:                              ; preds = %for.body47, %for.body30, %land.lhs.true18
  %arrayidx32.lcssa.sink = phi ptr [ %arrayidx, %land.lhs.true18 ], [ %arrayidx32, %for.body30 ], [ %arrayidx49, %for.body47 ]
  call void @llvm.memcpy.p0.p0.i64(ptr noundef nonnull align 8 dereferenceable(416) %sn_info, ptr noundef nonnull align 8 dereferenceable(416) %arrayidx32.lcssa.sink, i64 416, i1 false)
  br label %if.end61

if.end61:                                         ; preds = %for.cond45, %for.cond28, %for.inc, %if.end61.sink.split, %if.else42
  %ret.0 = phi i1 [ false, %if.else42 ], [ true, %if.end61.sink.split ], [ false, %for.inc ], [ false, %for.cond28 ], [ false, %for.cond45 ]
  %3 = load ptr, ptr %sn_tab, align 8
  call void @g_free(ptr noundef %3) #6
  br label %return

return:                                           ; preds = %if.else7, %if.end61, %if.then6
  %retval.0 = phi i1 [ false, %if.then6 ], [ %ret.0, %if.end61 ], [ false, %if.else7 ]
  ret i1 %retval.0
}